target datalayout = "e-m:e-p270:32:32-p271:32:32-p272:64:64-i64:64-i128:128-f80:128-n8:16:32:64-S128"
target triple = "x86_64-unknown-linux-gnu"

%"struct.pbrt::SDVertex" = type <{ %"class.pbrt::Point3", [4 x i8], ptr, ptr, i8, i8, [6 x i8] }>
%"class.pbrt::Point3" = type { %"class.pbrt::Tuple3" }
%"class.pbrt::Tuple3" = type { float, float, float }
%"struct.pbrt::SDFace" = type { [3 x ptr], [3 x ptr], [4 x ptr] }

@.str = private unnamed_addr constant [122 x i8] c"generated/home/dtcxzyw/WorkSpace/Projects/compilers/llvm-opt-benchmark/bench/pbrt-v4/pbrt-v4/src/pbrt/util/loopsubdiv.cpp\00", align 1
@.str.3 = private unnamed_addr constant [36 x i8] c"Basic logic error in SDFace::vnum()\00", align 1

; Function Attrs: mustprogress uwtable
define linkonce_odr dso_local noundef i32 @_ZNK4pbrt6SDFace4vnumEPNS_8SDVertexE(ptr noundef nonnull align 8 dereferenceable(80) %this, ptr noundef %vert) #1 comdat align 2 {
entry:
  %this.addr = alloca ptr, align 8
  %vert.addr = alloca ptr, align 8
  %i = alloca i32, align 4
  store ptr %this, ptr %this.addr, align 8
  store ptr %vert, ptr %vert.addr, align 8
  %this1 = load ptr, ptr %this.addr, align 8
  store i32 0, ptr %i, align 4
  br label %for.cond

for.cond:                                         ; preds = %for.inc, %entry
  %0 = load i32, ptr %i, align 4
  %cmp = icmp slt i32 %0, 3
  br i1 %cmp, label %for.body, label %for.end

for.body:                                         ; preds = %for.cond
  %v = getelementptr inbounds %"struct.pbrt::SDFace", ptr %this1, i32 0, i32 0
  %1 = load i32, ptr %i, align 4
  %idxprom = sext i32 %1 to i64
  %arrayidx = getelementptr inbounds [3 x ptr], ptr %v, i64 0, i64 %idxprom
  %2 = load ptr, ptr %arrayidx, align 8
  %3 = load ptr, ptr %vert.addr, align 8
  %cmp2 = icmp eq ptr %2, %3
  br i1 %cmp2, label %if.then, label %if.end

if.then:                                          ; preds = %for.body
  %4 = load i32, ptr %i, align 4
  ret i32 %4

if.end:                                           ; preds = %for.body
  br label %for.inc

for.inc:                                          ; preds = %if.end
  %5 = load i32, ptr %i, align 4
  %inc = add nsw i32 %5, 1
  store i32 %inc, ptr %i, align 4
  br label %for.cond, !llvm.loop !31

for.end:                                          ; preds = %for.cond
  call void @_ZN4pbrt8LogFatalENS_8LogLevelEPKciS2_(i32 noundef 2, ptr noundef @.str, i32 noundef 58, ptr noundef @.str.3) #19
  unreachable
}

; Function Attrs: mustprogress uwtable
define linkonce_odr dso_local noundef ptr @_ZN4pbrt6SDFace8prevFaceEPNS_8SDVertexE(ptr noundef nonnull align 8 dereferenceable(80) %this, ptr noundef %vert) #1 comdat align 2 {
entry:
  %this.addr = alloca ptr, align 8
  %vert.addr = alloca ptr, align 8
  store ptr %this, ptr %this.addr, align 8
  store ptr %vert, ptr %vert.addr, align 8
  %this1 = load ptr, ptr %this.addr, align 8
  %f = getelementptr inbounds %"struct.pbrt::SDFace", ptr %this1, i32 0, i32 1
  %0 = load ptr, ptr %vert.addr, align 8
  %call = call noundef i32 @_ZNK4pbrt6SDFace4vnumEPNS_8SDVertexE(ptr noundef nonnull align 8 dereferenceable(80) %this1, ptr noundef %0)
  %add = add nsw i32 %call, 2
  %rem = srem i32 %add, 3
  %idxprom = sext i32 %rem to i64
  %arrayidx = getelementptr inbounds [3 x ptr], ptr %f, i64 0, i64 %idxprom
  %1 = load ptr, ptr %arrayidx, align 8
  ret ptr %1
}

; Function Attrs: mustprogress uwtable
define linkonce_odr dso_local noundef ptr @_ZN4pbrt6SDFace8prevVertEPNS_8SDVertexE(ptr noundef nonnull align 8 dereferenceable(80) %this, ptr noundef %vert) #1 comdat align 2 {
entry:
  %this.addr = alloca ptr, align 8
  %vert.addr = alloca ptr, align 8
  store ptr %this, ptr %this.addr, align 8
  store ptr %vert, ptr %vert.addr, align 8
  %this1 = load ptr, ptr %this.addr, align 8
  %v = getelementptr inbounds %"struct.pbrt::SDFace", ptr %this1, i32 0, i32 0
  %0 = load ptr, ptr %vert.addr, align 8
  %call = call noundef i32 @_ZNK4pbrt6SDFace4vnumEPNS_8SDVertexE(ptr noundef nonnull align 8 dereferenceable(80) %this1, ptr noundef %0)
  %add = add nsw i32 %call, 2
  %rem = srem i32 %add, 3
  %idxprom = sext i32 %rem to i64
  %arrayidx = getelementptr inbounds [3 x ptr], ptr %v, i64 0, i64 %idxprom
  %1 = load ptr, ptr %arrayidx, align 8
  ret ptr %1
}

; Function Attrs: mustprogress uwtable
define linkonce_odr dso_local noundef ptr @_ZN4pbrt6SDFace8nextFaceEPNS_8SDVertexE(ptr noundef nonnull align 8 dereferenceable(80) %this, ptr noundef %vert) #1 comdat align 2 {
entry:
  %this.addr = alloca ptr, align 8
  %vert.addr = alloca ptr, align 8
  store ptr %this, ptr %this.addr, align 8
  store ptr %vert, ptr %vert.addr, align 8
  %this1 = load ptr, ptr %this.addr, align 8
  %f = getelementptr inbounds %"struct.pbrt::SDFace", ptr %this1, i32 0, i32 1
  %0 = load ptr, ptr %vert.addr, align 8
  %call = call noundef i32 @_ZNK4pbrt6SDFace4vnumEPNS_8SDVertexE(ptr noundef nonnull align 8 dereferenceable(80) %this1, ptr noundef %0)
  %idxprom = sext i32 %call to i64
  %arrayidx = getelementptr inbounds [3 x ptr], ptr %f, i64 0, i64 %idxprom
  %1 = load ptr, ptr %arrayidx, align 8
  ret ptr %1
}

; Function Attrs: mustprogress uwtable
define linkonce_odr dso_local noundef ptr @_ZN4pbrt6SDFace8nextVertEPNS_8SDVertexE(ptr noundef nonnull align 8 dereferenceable(80) %this, ptr noundef %vert) #1 comdat align 2 {
entry:
  %this.addr = alloca ptr, align 8
  %vert.addr = alloca ptr, align 8
  store ptr %this, ptr %this.addr, align 8
  store ptr %vert, ptr %vert.addr, align 8
  %this1 = load ptr, ptr %this.addr, align 8
  %v = getelementptr inbounds %"struct.pbrt::SDFace", ptr %this1, i32 0, i32 0
  %0 = load ptr, ptr %vert.addr, align 8
  %call = call noundef i32 @_ZNK4pbrt6SDFace4vnumEPNS_8SDVertexE(ptr noundef nonnull align 8 dereferenceable(80) %this1, ptr noundef %0)
  %add = add nsw i32 %call, 1
  %rem = srem i32 %add, 3
  %idxprom = sext i32 %rem to i64
  %arrayidx = getelementptr inbounds [3 x ptr], ptr %v, i64 0, i64 %idxprom
  %1 = load ptr, ptr %arrayidx, align 8
  ret ptr %1
}

; Function Attrs: mustprogress uwtable
define dso_local void @_ZN4pbrt8SDVertex7oneRingEPNS_6Point3IfEE(ptr noundef nonnull align 8 dereferenceable(34) %this, ptr noundef %p) #1 align 2 {
entry:
  %this.addr = alloca ptr, align 8
  %p.addr = alloca ptr, align 8
  %face = alloca ptr, align 8
  %face5 = alloca ptr, align 8
  %f2 = alloca ptr, align 8
  store ptr %this, ptr %this.addr, align 8
  store ptr %p, ptr %p.addr, align 8
  %this1 = load ptr, ptr %this.addr, align 8
  %boundary = getelementptr inbounds %"struct.pbrt::SDVertex", ptr %this1, i32 0, i32 5
  %0 = load i8, ptr %boundary, align 1
  %tobool = trunc i8 %0 to i1
  br i1 %tobool, label %if.else, label %if.then

if.then:                                          ; preds = %entry
  %startFace = getelementptr inbounds %"struct.pbrt::SDVertex", ptr %this1, i32 0, i32 2
  %1 = load ptr, ptr %startFace, align 8
  store ptr %1, ptr %face, align 8
  br label %do.body

do.body:                                          ; preds = %do.cond, %if.then
  %2 = load ptr, ptr %face, align 8
  %call = call noundef ptr @_ZN4pbrt6SDFace8nextVertEPNS_8SDVertexE(ptr noundef nonnull align 8 dereferenceable(80) %2, ptr noundef %this1)
  %p2 = getelementptr inbounds %"struct.pbrt::SDVertex", ptr %call, i32 0, i32 0
  %3 = load ptr, ptr %p.addr, align 8
  %incdec.ptr = getelementptr inbounds %"class.pbrt::Point3", ptr %3, i32 1
  store ptr %incdec.ptr, ptr %p.addr, align 8
  call void @llvm.memcpy.p0.p0.i64(ptr align 4 %3, ptr align 8 %p2, i64 12, i1 false)
  %4 = load ptr, ptr %face, align 8
  %call3 = call noundef ptr @_ZN4pbrt6SDFace8nextFaceEPNS_8SDVertexE(ptr noundef nonnull align 8 dereferenceable(80) %4, ptr noundef %this1)
  store ptr %call3, ptr %face, align 8
  br label %do.cond

do.cond:                                          ; preds = %do.body
  %5 = load ptr, ptr %face, align 8
  %startFace4 = getelementptr inbounds %"struct.pbrt::SDVertex", ptr %this1, i32 0, i32 2
  %6 = load ptr, ptr %startFace4, align 8
  %cmp = icmp ne ptr %5, %6
  br i1 %cmp, label %do.body, label %do.end, !llvm.loop !32

do.end:                                           ; preds = %do.cond
  br label %if.end

if.else:                                          ; preds = %entry
  %startFace6 = getelementptr inbounds %"struct.pbrt::SDVertex", ptr %this1, i32 0, i32 2
  %7 = load ptr, ptr %startFace6, align 8
  store ptr %7, ptr %face5, align 8
  br label %while.cond

while.cond:                                       ; preds = %while.body, %if.else
  %8 = load ptr, ptr %face5, align 8
  %call7 = call noundef ptr @_ZN4pbrt6SDFace8nextFaceEPNS_8SDVertexE(ptr noundef nonnull align 8 dereferenceable(80) %8, ptr noundef %this1)
  store ptr %call7, ptr %f2, align 8
  %cmp8 = icmp ne ptr %call7, null
  br i1 %cmp8, label %while.body, label %while.end

while.body:                                       ; preds = %while.cond
  %9 = load ptr, ptr %f2, align 8
  store ptr %9, ptr %face5, align 8
  br label %while.cond, !llvm.loop !33

while.end:                                        ; preds = %while.cond
  %10 = load ptr, ptr %face5, align 8
  %call9 = call noundef ptr @_ZN4pbrt6SDFace8nextVertEPNS_8SDVertexE(ptr noundef nonnull align 8 dereferenceable(80) %10, ptr noundef %this1)
  %p10 = getelementptr inbounds %"struct.pbrt::SDVertex", ptr %call9, i32 0, i32 0
  %11 = load ptr, ptr %p.addr, align 8
  %incdec.ptr11 = getelementptr inbounds %"class.pbrt::Point3", ptr %11, i32 1
  store ptr %incdec.ptr11, ptr %p.addr, align 8
  call void @llvm.memcpy.p0.p0.i64(ptr align 4 %11, ptr align 8 %p10, i64 12, i1 false)
  br label %do.body12

do.body12:                                        ; preds = %do.cond17, %while.end
  %12 = load ptr, ptr %face5, align 8
  %call13 = call noundef ptr @_ZN4pbrt6SDFace8prevVertEPNS_8SDVertexE(ptr noundef nonnull align 8 dereferenceable(80) %12, ptr noundef %this1)
  %p14 = getelementptr inbounds %"struct.pbrt::SDVertex", ptr %call13, i32 0, i32 0
  %13 = load ptr, ptr %p.addr, align 8
  %incdec.ptr15 = getelementptr inbounds %"class.pbrt::Point3", ptr %13, i32 1
  store ptr %incdec.ptr15, ptr %p.addr, align 8
  call void @llvm.memcpy.p0.p0.i64(ptr align 4 %13, ptr align 8 %p14, i64 12, i1 false)
  %14 = load ptr, ptr %face5, align 8
  %call16 = call noundef ptr @_ZN4pbrt6SDFace8prevFaceEPNS_8SDVertexE(ptr noundef nonnull align 8 dereferenceable(80) %14, ptr noundef %this1)
  store ptr %call16, ptr %face5, align 8
  br label %do.cond17

do.cond17:                                        ; preds = %do.body12
  %15 = load ptr, ptr %face5, align 8
  %cmp18 = icmp ne ptr %15, null
  br i1 %cmp18, label %do.body12, label %do.end19, !llvm.loop !34

do.end19:                                         ; preds = %do.cond17
  br label %if.end

if.end:                                           ; preds = %do.end19, %do.end
  ret void
}