; Function Attrs: mustprogress uwtable
define dso_local void @_ZN4pbrt8SDVertex7oneRingEPNS_6Point3IfEE(ptr noundef nonnull readonly align 8 dereferenceable(34) %this, ptr nocapture noundef writeonly %p) local_unnamed_addr #2 align 2 {
entry:
  %boundary = getelementptr inbounds i8, ptr %this, i64 33
  %0 = load i8, ptr %boundary, align 1
  %1 = and i8 %0, 1
  %tobool.not = icmp eq i8 %1, 0
  %startFace = getelementptr inbounds i8, ptr %this, i64 16
  %2 = load ptr, ptr %startFace, align 8
  br i1 %tobool.not, label %do.body, label %while.cond

do.body:                                          ; preds = %entry, %_ZN4pbrt6SDFace8nextFaceEPNS_8SDVertexE.exit
  %face.0 = phi ptr [ %7, %_ZN4pbrt6SDFace8nextFaceEPNS_8SDVertexE.exit ], [ %2, %entry ]
  %p.addr.0 = phi ptr [ %incdec.ptr, %_ZN4pbrt6SDFace8nextFaceEPNS_8SDVertexE.exit ], [ %p, %entry ]
  br label %for.body.i.i

for.body.i.i:                                     ; preds = %for.inc.i.i, %do.body
  %indvars.iv.i.i = phi i64 [ 0, %do.body ], [ %indvars.iv.next.i.i, %for.inc.i.i ]
  %arrayidx.i.i = getelementptr inbounds [3 x ptr], ptr %face.0, i64 0, i64 %indvars.iv.i.i
  %3 = load ptr, ptr %arrayidx.i.i, align 8
  %cmp2.i.i = icmp eq ptr %3, %this
  br i1 %cmp2.i.i, label %_ZN4pbrt6SDFace8nextVertEPNS_8SDVertexE.exit, label %for.inc.i.i

for.inc.i.i:                                      ; preds = %for.body.i.i
  %indvars.iv.next.i.i = add nuw nsw i64 %indvars.iv.i.i, 1
  %exitcond.not.i.i = icmp eq i64 %indvars.iv.next.i.i, 3
  br i1 %exitcond.not.i.i, label %for.end.i.i, label %for.body.i.i, !llvm.loop !23

for.end.i.i:                                      ; preds = %for.inc.i.i
  tail call void @_ZN4pbrt8LogFatalENS_8LogLevelEPKciS2_(i32 noundef 2, ptr noundef nonnull @.str, i32 noundef 58, ptr noundef nonnull @.str.3) #18
  unreachable

_ZN4pbrt6SDFace8nextVertEPNS_8SDVertexE.exit:     ; preds = %for.body.i.i
  %4 = trunc i64 %indvars.iv.i.i to i32
  %add.i = add nsw i32 %4, 1
  %rem.i = srem i32 %add.i, 3
  %idxprom.i = sext i32 %rem.i to i64
  %arrayidx.i = getelementptr inbounds [3 x ptr], ptr %face.0, i64 0, i64 %idxprom.i
  %5 = load ptr, ptr %arrayidx.i, align 8
  %incdec.ptr = getelementptr inbounds i8, ptr %p.addr.0, i64 12
  tail call void @llvm.memcpy.p0.p0.i64(ptr noundef nonnull align 4 dereferenceable(12) %p.addr.0, ptr noundef nonnull align 8 dereferenceable(12) %5, i64 12, i1 false)
  br label %for.body.i.i9

for.body.i.i9:                                    ; preds = %for.inc.i.i13, %_ZN4pbrt6SDFace8nextVertEPNS_8SDVertexE.exit
  %indvars.iv.i.i10 = phi i64 [ 0, %_ZN4pbrt6SDFace8nextVertEPNS_8SDVertexE.exit ], [ %indvars.iv.next.i.i14, %for.inc.i.i13 ]
  %arrayidx.i.i11 = getelementptr inbounds [3 x ptr], ptr %face.0, i64 0, i64 %indvars.iv.i.i10
  %6 = load ptr, ptr %arrayidx.i.i11, align 8
  %cmp2.i.i12 = icmp eq ptr %6, %this
  br i1 %cmp2.i.i12, label %_ZN4pbrt6SDFace8nextFaceEPNS_8SDVertexE.exit, label %for.inc.i.i13

for.inc.i.i13:                                    ; preds = %for.body.i.i9
  %indvars.iv.next.i.i14 = add nuw nsw i64 %indvars.iv.i.i10, 1
  %exitcond.not.i.i15 = icmp eq i64 %indvars.iv.next.i.i14, 3
  br i1 %exitcond.not.i.i15, label %for.end.i.i16, label %for.body.i.i9, !llvm.loop !23

for.end.i.i16:                                    ; preds = %for.inc.i.i13
  tail call void @_ZN4pbrt8LogFatalENS_8LogLevelEPKciS2_(i32 noundef 2, ptr noundef nonnull @.str, i32 noundef 58, ptr noundef nonnull @.str.3) #18
  unreachable

_ZN4pbrt6SDFace8nextFaceEPNS_8SDVertexE.exit:     ; preds = %for.body.i.i9
  %f.i = getelementptr inbounds i8, ptr %face.0, i64 24
  %sext.i = shl i64 %indvars.iv.i.i10, 32
  %idxprom.i17 = ashr exact i64 %sext.i, 32
  %arrayidx.i18 = getelementptr inbounds [3 x ptr], ptr %f.i, i64 0, i64 %idxprom.i17
  %7 = load ptr, ptr %arrayidx.i18, align 8
  %8 = load ptr, ptr %startFace, align 8
  %cmp.not = icmp eq ptr %7, %8
  br i1 %cmp.not, label %if.end, label %do.body, !llvm.loop !57

while.cond:                                       ; preds = %entry, %_ZN4pbrt6SDFace8nextFaceEPNS_8SDVertexE.exit31
  %face5.0 = phi ptr [ %10, %_ZN4pbrt6SDFace8nextFaceEPNS_8SDVertexE.exit31 ], [ %2, %entry ]
  br label %for.body.i.i19

for.body.i.i19:                                   ; preds = %for.inc.i.i23, %while.cond
  %indvars.iv.i.i20 = phi i64 [ 0, %while.cond ], [ %indvars.iv.next.i.i24, %for.inc.i.i23 ]
  %arrayidx.i.i21 = getelementptr inbounds [3 x ptr], ptr %face5.0, i64 0, i64 %indvars.iv.i.i20
  %9 = load ptr, ptr %arrayidx.i.i21, align 8
  %cmp2.i.i22 = icmp eq ptr %9, %this
  br i1 %cmp2.i.i22, label %_ZN4pbrt6SDFace8nextFaceEPNS_8SDVertexE.exit31, label %for.inc.i.i23

for.inc.i.i23:                                    ; preds = %for.body.i.i19
  %indvars.iv.next.i.i24 = add nuw nsw i64 %indvars.iv.i.i20, 1
  %exitcond.not.i.i25 = icmp eq i64 %indvars.iv.next.i.i24, 3
  br i1 %exitcond.not.i.i25, label %for.end.i.i26, label %for.body.i.i19, !llvm.loop !23

for.end.i.i26:                                    ; preds = %for.inc.i.i23
  tail call void @_ZN4pbrt8LogFatalENS_8LogLevelEPKciS2_(i32 noundef 2, ptr noundef nonnull @.str, i32 noundef 58, ptr noundef nonnull @.str.3) #18
  unreachable

_ZN4pbrt6SDFace8nextFaceEPNS_8SDVertexE.exit31:   ; preds = %for.body.i.i19
  %f.i27 = getelementptr inbounds i8, ptr %face5.0, i64 24
  %sext.i28 = shl i64 %indvars.iv.i.i20, 32
  %idxprom.i29 = ashr exact i64 %sext.i28, 32
  %arrayidx.i30 = getelementptr inbounds [3 x ptr], ptr %f.i27, i64 0, i64 %idxprom.i29
  %10 = load ptr, ptr %arrayidx.i30, align 8
  %cmp8.not = icmp eq ptr %10, null
  br i1 %cmp8.not, label %for.body.i.i32, label %while.cond, !llvm.loop !58

for.body.i.i32:                                   ; preds = %_ZN4pbrt6SDFace8nextFaceEPNS_8SDVertexE.exit31, %for.inc.i.i36
  %indvars.iv.i.i33 = phi i64 [ %indvars.iv.next.i.i37, %for.inc.i.i36 ], [ 0, %_ZN4pbrt6SDFace8nextFaceEPNS_8SDVertexE.exit31 ]
  %arrayidx.i.i34 = getelementptr inbounds [3 x ptr], ptr %face5.0, i64 0, i64 %indvars.iv.i.i33
  %11 = load ptr, ptr %arrayidx.i.i34, align 8
  %cmp2.i.i35 = icmp eq ptr %11, %this
  br i1 %cmp2.i.i35, label %_ZN4pbrt6SDFace8nextVertEPNS_8SDVertexE.exit44, label %for.inc.i.i36

for.inc.i.i36:                                    ; preds = %for.body.i.i32
  %indvars.iv.next.i.i37 = add nuw nsw i64 %indvars.iv.i.i33, 1
  %exitcond.not.i.i38 = icmp eq i64 %indvars.iv.next.i.i37, 3
  br i1 %exitcond.not.i.i38, label %for.end.i.i39, label %for.body.i.i32, !llvm.loop !23

for.end.i.i39:                                    ; preds = %for.inc.i.i36
  tail call void @_ZN4pbrt8LogFatalENS_8LogLevelEPKciS2_(i32 noundef 2, ptr noundef nonnull @.str, i32 noundef 58, ptr noundef nonnull @.str.3) #18
  unreachable

_ZN4pbrt6SDFace8nextVertEPNS_8SDVertexE.exit44:   ; preds = %for.body.i.i32
  %12 = trunc i64 %indvars.iv.i.i33 to i32
  %add.i40 = add nsw i32 %12, 1
  %rem.i41 = srem i32 %add.i40, 3
  %idxprom.i42 = sext i32 %rem.i41 to i64
  %arrayidx.i43 = getelementptr inbounds [3 x ptr], ptr %face5.0, i64 0, i64 %idxprom.i42
  %13 = load ptr, ptr %arrayidx.i43, align 8
  tail call void @llvm.memcpy.p0.p0.i64(ptr noundef nonnull align 4 dereferenceable(12) %p, ptr noundef nonnull align 8 dereferenceable(12) %13, i64 12, i1 false)
  br label %do.body12

do.body12:                                        ; preds = %_ZN4pbrt6SDFace8prevFaceEPNS_8SDVertexE.exit, %_ZN4pbrt6SDFace8nextVertEPNS_8SDVertexE.exit44
  %face5.1 = phi ptr [ %face5.0, %_ZN4pbrt6SDFace8nextVertEPNS_8SDVertexE.exit44 ], [ %19, %_ZN4pbrt6SDFace8prevFaceEPNS_8SDVertexE.exit ]
  %p.pn = phi ptr [ %p, %_ZN4pbrt6SDFace8nextVertEPNS_8SDVertexE.exit44 ], [ %p.addr.1, %_ZN4pbrt6SDFace8prevFaceEPNS_8SDVertexE.exit ]
  %p.addr.1 = getelementptr inbounds i8, ptr %p.pn, i64 12
  br label %for.body.i.i45

for.body.i.i45:                                   ; preds = %for.inc.i.i49, %do.body12
  %indvars.iv.i.i46 = phi i64 [ 0, %do.body12 ], [ %indvars.iv.next.i.i50, %for.inc.i.i49 ]
  %arrayidx.i.i47 = getelementptr inbounds [3 x ptr], ptr %face5.1, i64 0, i64 %indvars.iv.i.i46
  %14 = load ptr, ptr %arrayidx.i.i47, align 8
  %cmp2.i.i48 = icmp eq ptr %14, %this
  br i1 %cmp2.i.i48, label %_ZN4pbrt6SDFace8prevVertEPNS_8SDVertexE.exit, label %for.inc.i.i49

for.inc.i.i49:                                    ; preds = %for.body.i.i45
  %indvars.iv.next.i.i50 = add nuw nsw i64 %indvars.iv.i.i46, 1
  %exitcond.not.i.i51 = icmp eq i64 %indvars.iv.next.i.i50, 3
  br i1 %exitcond.not.i.i51, label %for.end.i.i52, label %for.body.i.i45, !llvm.loop !23

for.end.i.i52:                                    ; preds = %for.inc.i.i49
  tail call void @_ZN4pbrt8LogFatalENS_8LogLevelEPKciS2_(i32 noundef 2, ptr noundef nonnull @.str, i32 noundef 58, ptr noundef nonnull @.str.3) #18
  unreachable

_ZN4pbrt6SDFace8prevVertEPNS_8SDVertexE.exit:     ; preds = %for.body.i.i45
  %15 = trunc i64 %indvars.iv.i.i46 to i32
  %add.i53 = add nsw i32 %15, 2
  %rem.i54 = srem i32 %add.i53, 3
  %idxprom.i55 = sext i32 %rem.i54 to i64
  %arrayidx.i56 = getelementptr inbounds [3 x ptr], ptr %face5.1, i64 0, i64 %idxprom.i55
  %16 = load ptr, ptr %arrayidx.i56, align 8
  tail call void @llvm.memcpy.p0.p0.i64(ptr noundef nonnull align 4 dereferenceable(12) %p.addr.1, ptr noundef nonnull align 8 dereferenceable(12) %16, i64 12, i1 false)
  br label %for.body.i.i57

for.body.i.i57:                                   ; preds = %for.inc.i.i61, %_ZN4pbrt6SDFace8prevVertEPNS_8SDVertexE.exit
  %indvars.iv.i.i58 = phi i64 [ 0, %_ZN4pbrt6SDFace8prevVertEPNS_8SDVertexE.exit ], [ %indvars.iv.next.i.i62, %for.inc.i.i61 ]
  %arrayidx.i.i59 = getelementptr inbounds [3 x ptr], ptr %face5.1, i64 0, i64 %indvars.iv.i.i58
  %17 = load ptr, ptr %arrayidx.i.i59, align 8
  %cmp2.i.i60 = icmp eq ptr %17, %this
  br i1 %cmp2.i.i60, label %_ZN4pbrt6SDFace8prevFaceEPNS_8SDVertexE.exit, label %for.inc.i.i61

for.inc.i.i61:                                    ; preds = %for.body.i.i57
  %indvars.iv.next.i.i62 = add nuw nsw i64 %indvars.iv.i.i58, 1
  %exitcond.not.i.i63 = icmp eq i64 %indvars.iv.next.i.i62, 3
  br i1 %exitcond.not.i.i63, label %for.end.i.i64, label %for.body.i.i57, !llvm.loop !23

for.end.i.i64:                                    ; preds = %for.inc.i.i61
  tail call void @_ZN4pbrt8LogFatalENS_8LogLevelEPKciS2_(i32 noundef 2, ptr noundef nonnull @.str, i32 noundef 58, ptr noundef nonnull @.str.3) #18
  unreachable

_ZN4pbrt6SDFace8prevFaceEPNS_8SDVertexE.exit:     ; preds = %for.body.i.i57
  %f.i65 = getelementptr inbounds i8, ptr %face5.1, i64 24
  %18 = trunc i64 %indvars.iv.i.i58 to i32
  %add.i66 = add nsw i32 %18, 2
  %rem.i67 = srem i32 %add.i66, 3
  %idxprom.i68 = sext i32 %rem.i67 to i64
  %arrayidx.i69 = getelementptr inbounds [3 x ptr], ptr %f.i65, i64 0, i64 %idxprom.i68
  %19 = load ptr, ptr %arrayidx.i69, align 8
  %cmp18.not = icmp eq ptr %19, null
  br i1 %cmp18.not, label %if.end, label %do.body12, !llvm.loop !59

if.end:                                           ; preds = %_ZN4pbrt6SDFace8prevFaceEPNS_8SDVertexE.exit, %_ZN4pbrt6SDFace8nextFaceEPNS_8SDVertexE.exit
  ret void
}